; Function Attrs: null_pointer_is_valid sspstrong uwtable
define internal void @tele_param_deferred_del_rel(ptr noundef %0, ptr noundef %1, ptr noundef %2, i32 noundef %3, i32 noundef %4, ptr readnone captures(none) %5) #0 {
  %.not = icmp eq i32 %3, 1
  br i1 %.not, label %9, label %7

7:                                                ; preds = %6
  %8 = tail call ptr @proto_tree_add_expert(ptr noundef %2, ptr noundef %1, ptr noundef nonnull @ei_ansi_637_unexpected_length, ptr noundef %0, i32 noundef %4, i32 noundef %3)
  br label %11

9:                                                ; preds = %6
  %10 = load i32, ptr @hf_ansi_637_tele_deferred_del_relative, align 4
  tail call fastcc void @tele_param_timestamp_rel(ptr noundef %0, ptr noundef %2, i32 noundef %4, i32 noundef %10)
  br label %11

11:                                               ; preds = %9, %7
  ret void
}